target datalayout = "e-m:e-p270:32:32-p271:32:32-p272:64:64-i64:64-i128:128-f80:128-n8:16:32:64-S128"
target triple = "x86_64-pc-linux-gnu"

%struct.Ivy_Dec_t_ = type { i32 }
%struct.Vec_Int_t_ = type { i32, i32, ptr }
%union.anon.0 = type { %struct.Ivy_Dec_t_ }
%struct.Ivy_Man_t_ = type { ptr, ptr, ptr, ptr, ptr, %struct.Ivy_Obj_t_, [8 x i32], i32, i32, ptr, i32, i32, i32, i32, ptr, i32, ptr, ptr, ptr, i32, ptr, ptr, ptr, i64, i64 }
%struct.Ivy_Obj_t_ = type { i32, i32, i32, i32, ptr, ptr, ptr, ptr, ptr, ptr, ptr, ptr }
%struct.Vec_Ptr_t_ = type { i32, i32, ptr }

; Function Attrs: nounwind uwtable
define internal ptr @Vec_PtrEntry(ptr noundef %0, i32 noundef %1) #0 {
  %3 = alloca ptr, align 8
  %4 = alloca i32, align 4
  store ptr %0, ptr %3, align 8
  store i32 %1, ptr %4, align 4
  %5 = load ptr, ptr %3, align 8
  %6 = getelementptr inbounds %struct.Vec_Ptr_t_, ptr %5, i32 0, i32 2
  %7 = load ptr, ptr %6, align 8
  %8 = load i32, ptr %4, align 4
  %9 = sext i32 %8 to i64
  %10 = getelementptr inbounds ptr, ptr %7, i64 %9
  %11 = load ptr, ptr %10, align 8
  ret ptr %11
}

; Function Attrs: nounwind uwtable
define internal i32 @Ivy_DecGetVar(ptr noundef %0, i32 noundef %1) #0 {
  %3 = alloca i32, align 4
  %4 = alloca ptr, align 8
  %5 = alloca i32, align 4
  store ptr %0, ptr %4, align 8
  store i32 %1, ptr %5, align 4
  %6 = load i32, ptr %5, align 4
  switch i32 %6, label %36 [
    i32 0, label %7
    i32 1, label %12
    i32 2, label %17
    i32 3, label %22
    i32 4, label %27
    i32 5, label %32
  ]

7:                                                ; preds = %2
  %8 = load ptr, ptr %4, align 8
  %9 = load i32, ptr %8, align 4
  %10 = lshr i32 %9, 8
  %11 = and i32 %10, 15
  store i32 %11, ptr %3, align 4
  br label %37

12:                                               ; preds = %2
  %13 = load ptr, ptr %4, align 8
  %14 = load i32, ptr %13, align 4
  %15 = lshr i32 %14, 12
  %16 = and i32 %15, 15
  store i32 %16, ptr %3, align 4
  br label %37

17:                                               ; preds = %2
  %18 = load ptr, ptr %4, align 8
  %19 = load i32, ptr %18, align 4
  %20 = lshr i32 %19, 16
  %21 = and i32 %20, 15
  store i32 %21, ptr %3, align 4
  br label %37

22:                                               ; preds = %2
  %23 = load ptr, ptr %4, align 8
  %24 = load i32, ptr %23, align 4
  %25 = lshr i32 %24, 20
  %26 = and i32 %25, 15
  store i32 %26, ptr %3, align 4
  br label %37

27:                                               ; preds = %2
  %28 = load ptr, ptr %4, align 8
  %29 = load i32, ptr %28, align 4
  %30 = lshr i32 %29, 24
  %31 = and i32 %30, 15
  store i32 %31, ptr %3, align 4
  br label %37

32:                                               ; preds = %2
  %33 = load ptr, ptr %4, align 8
  %34 = load i32, ptr %33, align 4
  %35 = lshr i32 %34, 28
  store i32 %35, ptr %3, align 4
  br label %37

36:                                               ; preds = %2
  store i32 -1, ptr %3, align 4
  br label %37

37:                                               ; preds = %36, %32, %27, %22, %17, %12, %7
  %38 = load i32, ptr %3, align 4
  ret i32 %38
}

; Function Attrs: nounwind uwtable
define internal ptr @Ivy_ManObj(ptr noundef %0, i32 noundef %1) #0 {
  %3 = alloca ptr, align 8
  %4 = alloca i32, align 4
  store ptr %0, ptr %3, align 8
  store i32 %1, ptr %4, align 4
  %5 = load ptr, ptr %3, align 8
  %6 = getelementptr inbounds %struct.Ivy_Man_t_, ptr %5, i32 0, i32 3
  %7 = load ptr, ptr %6, align 8
  %8 = load i32, ptr %4, align 4
  %9 = call ptr @Vec_PtrEntry(ptr noundef %7, i32 noundef %8)
  ret ptr %9
}

; Function Attrs: nounwind uwtable
define internal ptr @Ivy_NotCond(ptr noundef %0, i32 noundef %1) #0 {
  %3 = alloca ptr, align 8
  %4 = alloca i32, align 4
  store ptr %0, ptr %3, align 8
  store i32 %1, ptr %4, align 4
  %5 = load ptr, ptr %3, align 8
  %6 = ptrtoint ptr %5 to i64
  %7 = load i32, ptr %4, align 4
  %8 = sext i32 %7 to i64
  %9 = xor i64 %6, %8
  %10 = inttoptr i64 %9 to ptr
  ret ptr %10
}

; Function Attrs: nounwind uwtable
define internal ptr @Ivy_ManConst1(ptr noundef %0) #0 {
  %2 = alloca ptr, align 8
  store ptr %0, ptr %2, align 8
  %3 = load ptr, ptr %2, align 8
  %4 = getelementptr inbounds %struct.Ivy_Man_t_, ptr %3, i32 0, i32 4
  %5 = load ptr, ptr %4, align 8
  ret ptr %5
}

; Function Attrs: nounwind uwtable
define internal i32 @Ivy_IntToDec(i32 noundef %0) #0 {
  %2 = alloca %struct.Ivy_Dec_t_, align 4
  %3 = alloca i32, align 4
  %4 = alloca %union.anon.0, align 4
  store i32 %0, ptr %3, align 4
  %5 = load i32, ptr %3, align 4
  store i32 %5, ptr %4, align 4
  call void @llvm.memcpy.p0.p0.i64(ptr align 4 %2, ptr align 4 %4, i64 4, i1 false)
  %6 = getelementptr inbounds %struct.Ivy_Dec_t_, ptr %2, i32 0, i32 0
  %7 = load i32, ptr %6, align 4
  ret i32 %7
}

; Function Attrs: nounwind uwtable
define internal i32 @Vec_IntEntry(ptr noundef %0, i32 noundef %1) #0 {
  %3 = alloca ptr, align 8
  %4 = alloca i32, align 4
  store ptr %0, ptr %3, align 8
  store i32 %1, ptr %4, align 4
  %5 = load ptr, ptr %3, align 8
  %6 = getelementptr inbounds %struct.Vec_Int_t_, ptr %5, i32 0, i32 2
  %7 = load ptr, ptr %6, align 8
  %8 = load i32, ptr %4, align 4
  %9 = sext i32 %8 to i64
  %10 = getelementptr inbounds i32, ptr %7, i64 %9
  %11 = load i32, ptr %10, align 4
  ret i32 %11
}

; Function Attrs: nounwind uwtable
define ptr @Ivy_ManDsdConstruct_rec(ptr noundef %0, ptr noundef %1, i32 noundef %2, ptr noundef %3) #0 {
  %5 = alloca ptr, align 8
  %6 = alloca ptr, align 8
  %7 = alloca ptr, align 8
  %8 = alloca i32, align 4
  %9 = alloca ptr, align 8
  %10 = alloca ptr, align 8
  %11 = alloca ptr, align 8
  %12 = alloca [16 x ptr], align 16
  %13 = alloca i32, align 4
  %14 = alloca i32, align 4
  %15 = alloca %struct.Ivy_Dec_t_, align 4
  %16 = alloca i32, align 4
  %17 = alloca i32, align 4
  %18 = alloca i32, align 4
  store ptr %0, ptr %6, align 8
  store ptr %1, ptr %7, align 8
  store i32 %2, ptr %8, align 4
  store ptr %3, ptr %9, align 8
  %19 = load ptr, ptr %9, align 8
  %20 = load i32, ptr %8, align 4
  %21 = call i32 @Vec_IntEntry(ptr noundef %19, i32 noundef %20)
  %22 = call i32 @Ivy_IntToDec(i32 noundef %21)
  %23 = getelementptr inbounds %struct.Ivy_Dec_t_, ptr %15, i32 0, i32 0
  store i32 %22, ptr %23, align 4
  %24 = load i32, ptr %15, align 4
  %25 = and i32 %24, 15
  %26 = icmp eq i32 %25, 1
  br i1 %26, label %27, label %34

27:                                               ; preds = %4
  %28 = load ptr, ptr %6, align 8
  %29 = call ptr @Ivy_ManConst1(ptr noundef %28)
  %30 = load i32, ptr %15, align 4
  %31 = lshr i32 %30, 4
  %32 = and i32 %31, 1
  %33 = call ptr @Ivy_NotCond(ptr noundef %29, i32 noundef %32)
  store ptr %33, ptr %5, align 8
  br label %191

34:                                               ; preds = %4
  %35 = load i32, ptr %15, align 4
  %36 = and i32 %35, 15
  %37 = icmp eq i32 %36, 0
  br i1 %37, label %38, label %49

38:                                               ; preds = %34
  %39 = load ptr, ptr %6, align 8
  %40 = load ptr, ptr %7, align 8
  %41 = load i32, ptr %8, align 4
  %42 = call i32 @Vec_IntEntry(ptr noundef %40, i32 noundef %41)
  %43 = call ptr @Ivy_ManObj(ptr noundef %39, i32 noundef %42)
  store ptr %43, ptr %10, align 8
  %44 = load ptr, ptr %10, align 8
  %45 = load i32, ptr %15, align 4
  %46 = lshr i32 %45, 4
  %47 = and i32 %46, 1
  %48 = call ptr @Ivy_NotCond(ptr noundef %44, i32 noundef %47)
  store ptr %48, ptr %5, align 8
  br label %191

49:                                               ; preds = %34
  %50 = load i32, ptr %15, align 4
  %51 = and i32 %50, 15
  %52 = icmp eq i32 %51, 2
  br i1 %52, label %53, label %67

53:                                               ; preds = %49
  %54 = load ptr, ptr %6, align 8
  %55 = load ptr, ptr %7, align 8
  %56 = load i32, ptr %15, align 4
  %57 = lshr i32 %56, 8
  %58 = and i32 %57, 15
  %59 = ashr i32 %58, 1
  %60 = load ptr, ptr %9, align 8
  %61 = call ptr @Ivy_ManDsdConstruct_rec(ptr noundef %54, ptr noundef %55, i32 noundef %59, ptr noundef %60)
  store ptr %61, ptr %10, align 8
  %62 = load ptr, ptr %10, align 8
  %63 = load i32, ptr %15, align 4
  %64 = lshr i32 %63, 4
  %65 = and i32 %64, 1
  %66 = call ptr @Ivy_NotCond(ptr noundef %62, i32 noundef %65)
  store ptr %66, ptr %5, align 8
  br label %191

67:                                               ; preds = %49
  %68 = load i32, ptr %15, align 4
  %69 = and i32 %68, 15
  %70 = icmp eq i32 %69, 3
  br i1 %70, label %75, label %71

71:                                               ; preds = %67
  %72 = load i32, ptr %15, align 4
  %73 = and i32 %72, 15
  %74 = icmp eq i32 %73, 4
  br i1 %74, label %75, label %118

75:                                               ; preds = %71, %67
  store i32 0, ptr %14, align 4
  br label %76

76:                                               ; preds = %99, %75
  %77 = load i32, ptr %14, align 4
  %78 = load i32, ptr %15, align 4
  %79 = lshr i32 %78, 5
  %80 = and i32 %79, 7
  %81 = icmp slt i32 %77, %80
  br i1 %81, label %82, label %102

82:                                               ; preds = %76
  %83 = load i32, ptr %14, align 4
  %84 = call i32 @Ivy_DecGetVar(ptr noundef %15, i32 noundef %83)
  store i32 %84, ptr %13, align 4
  %85 = load ptr, ptr %6, align 8
  %86 = load ptr, ptr %7, align 8
  %87 = load i32, ptr %13, align 4
  %88 = ashr i32 %87, 1
  %89 = load ptr, ptr %9, align 8
  %90 = call ptr @Ivy_ManDsdConstruct_rec(ptr noundef %85, ptr noundef %86, i32 noundef %88, ptr noundef %89)
  store ptr %90, ptr %11, align 8
  %91 = load ptr, ptr %11, align 8
  %92 = load i32, ptr %13, align 4
  %93 = and i32 %92, 1
  %94 = call ptr @Ivy_NotCond(ptr noundef %91, i32 noundef %93)
  store ptr %94, ptr %11, align 8
  %95 = load ptr, ptr %11, align 8
  %96 = load i32, ptr %14, align 4
  %97 = sext i32 %96 to i64
  %98 = getelementptr inbounds [16 x ptr], ptr %12, i64 0, i64 %97
  store ptr %95, ptr %98, align 8
  br label %99

99:                                               ; preds = %82
  %100 = load i32, ptr %14, align 4
  %101 = add nsw i32 %100, 1
  store i32 %101, ptr %14, align 4
  br label %76, !llvm.loop !12

102:                                              ; preds = %76
  %103 = load ptr, ptr %6, align 8
  %104 = getelementptr inbounds [16 x ptr], ptr %12, i64 0, i64 0
  %105 = load i32, ptr %15, align 4
  %106 = lshr i32 %105, 5
  %107 = and i32 %106, 7
  %108 = load i32, ptr %15, align 4
  %109 = and i32 %108, 15
  %110 = icmp eq i32 %109, 3
  %111 = select i1 %110, i32 5, i32 6
  %112 = call ptr @Ivy_Multi(ptr noundef %103, ptr noundef %104, i32 noundef %107, i32 noundef %111)
  store ptr %112, ptr %10, align 8
  %113 = load ptr, ptr %10, align 8
  %114 = load i32, ptr %15, align 4
  %115 = lshr i32 %114, 4
  %116 = and i32 %115, 1
  %117 = call ptr @Ivy_NotCond(ptr noundef %113, i32 noundef %116)
  store ptr %117, ptr %5, align 8
  br label %191

118:                                              ; preds = %71
  %119 = load i32, ptr %15, align 4
  %120 = and i32 %119, 15
  %121 = icmp eq i32 %120, 5
  br i1 %121, label %126, label %122

122:                                              ; preds = %118
  %123 = load i32, ptr %15, align 4
  %124 = and i32 %123, 15
  %125 = icmp eq i32 %124, 6
  br i1 %125, label %126, label %190

126:                                              ; preds = %122, %118
  %127 = call i32 @Ivy_DecGetVar(ptr noundef %15, i32 noundef 0)
  store i32 %127, ptr %16, align 4
  %128 = call i32 @Ivy_DecGetVar(ptr noundef %15, i32 noundef 1)
  store i32 %128, ptr %17, align 4
  %129 = call i32 @Ivy_DecGetVar(ptr noundef %15, i32 noundef 2)
  store i32 %129, ptr %18, align 4
  %130 = load ptr, ptr %6, align 8
  %131 = load ptr, ptr %7, align 8
  %132 = load i32, ptr %16, align 4
  %133 = ashr i32 %132, 1
  %134 = load ptr, ptr %9, align 8
  %135 = call ptr @Ivy_ManDsdConstruct_rec(ptr noundef %130, ptr noundef %131, i32 noundef %133, ptr noundef %134)
  %136 = getelementptr inbounds [16 x ptr], ptr %12, i64 0, i64 0
  store ptr %135, ptr %136, align 16
  %137 = load ptr, ptr %6, align 8
  %138 = load ptr, ptr %7, align 8
  %139 = load i32, ptr %17, align 4
  %140 = ashr i32 %139, 1
  %141 = load ptr, ptr %9, align 8
  %142 = call ptr @Ivy_ManDsdConstruct_rec(ptr noundef %137, ptr noundef %138, i32 noundef %140, ptr noundef %141)
  %143 = getelementptr inbounds [16 x ptr], ptr %12, i64 0, i64 1
  store ptr %142, ptr %143, align 8
  %144 = load ptr, ptr %6, align 8
  %145 = load ptr, ptr %7, align 8
  %146 = load i32, ptr %18, align 4
  %147 = ashr i32 %146, 1
  %148 = load ptr, ptr %9, align 8
  %149 = call ptr @Ivy_ManDsdConstruct_rec(ptr noundef %144, ptr noundef %145, i32 noundef %147, ptr noundef %148)
  %150 = getelementptr inbounds [16 x ptr], ptr %12, i64 0, i64 2
  store ptr %149, ptr %150, align 16
  %151 = getelementptr inbounds [16 x ptr], ptr %12, i64 0, i64 0
  %152 = load ptr, ptr %151, align 16
  %153 = load i32, ptr %16, align 4
  %154 = and i32 %153, 1
  %155 = call ptr @Ivy_NotCond(ptr noundef %152, i32 noundef %154)
  %156 = getelementptr inbounds [16 x ptr], ptr %12, i64 0, i64 0
  store ptr %155, ptr %156, align 16
  %157 = getelementptr inbounds [16 x ptr], ptr %12, i64 0, i64 1
  %158 = load ptr, ptr %157, align 8
  %159 = load i32, ptr %17, align 4
  %160 = and i32 %159, 1
  %161 = call ptr @Ivy_NotCond(ptr noundef %158, i32 noundef %160)
  %162 = getelementptr inbounds [16 x ptr], ptr %12, i64 0, i64 1
  store ptr %161, ptr %162, align 8
  %163 = getelementptr inbounds [16 x ptr], ptr %12, i64 0, i64 2
  %164 = load ptr, ptr %163, align 16
  %165 = load i32, ptr %18, align 4
  %166 = and i32 %165, 1
  %167 = call ptr @Ivy_NotCond(ptr noundef %164, i32 noundef %166)
  %168 = getelementptr inbounds [16 x ptr], ptr %12, i64 0, i64 2
  store ptr %167, ptr %168, align 16
  %169 = load i32, ptr %15, align 4
  %170 = and i32 %169, 15
  %171 = icmp eq i32 %170, 5
  br i1 %171, label %172, label %181

172:                                              ; preds = %126
  %173 = load ptr, ptr %6, align 8
  %174 = getelementptr inbounds [16 x ptr], ptr %12, i64 0, i64 0
  %175 = load ptr, ptr %174, align 16
  %176 = getelementptr inbounds [16 x ptr], ptr %12, i64 0, i64 1
  %177 = load ptr, ptr %176, align 8
  %178 = getelementptr inbounds [16 x ptr], ptr %12, i64 0, i64 2
  %179 = load ptr, ptr %178, align 16
  %180 = call ptr @Ivy_Mux(ptr noundef %173, ptr noundef %175, ptr noundef %177, ptr noundef %179)
  store ptr %180, ptr %5, align 8
  br label %191

181:                                              ; preds = %126
  %182 = load ptr, ptr %6, align 8
  %183 = getelementptr inbounds [16 x ptr], ptr %12, i64 0, i64 0
  %184 = load ptr, ptr %183, align 16
  %185 = getelementptr inbounds [16 x ptr], ptr %12, i64 0, i64 1
  %186 = load ptr, ptr %185, align 8
  %187 = getelementptr inbounds [16 x ptr], ptr %12, i64 0, i64 2
  %188 = load ptr, ptr %187, align 16
  %189 = call ptr @Ivy_Maj(ptr noundef %182, ptr noundef %184, ptr noundef %186, ptr noundef %188)
  store ptr %189, ptr %5, align 8
  br label %191

190:                                              ; preds = %122
  store ptr null, ptr %5, align 8
  br label %191

191:                                              ; preds = %190, %181, %172, %102, %53, %38, %27
  %192 = load ptr, ptr %5, align 8
  ret ptr %192
}