; Function Attrs: nounwind uwtable
define ptr @Ivy_ManDsdConstruct_rec(ptr noundef %0, ptr noundef %1, i32 noundef %2, ptr noundef %3) local_unnamed_addr #0 {
  %5 = alloca [16 x ptr], align 16
  %6 = getelementptr i8, ptr %3, i64 8
  %.val44 = load ptr, ptr %6, align 8
  %7 = sext i32 %2 to i64
  %8 = getelementptr inbounds i32, ptr %.val44, i64 %7
  %9 = load i32, ptr %8, align 4
  %10 = and i32 %9, 15
  switch i32 %10, label %common.ret65 [
    i32 1, label %11
    i32 0, label %19
    i32 2, label %34
    i32 3, label %44
    i32 4, label %44
    i32 5, label %83
    i32 6, label %83
  ]

11:                                               ; preds = %4
  %12 = getelementptr i8, ptr %0, i64 32
  %.val49 = load ptr, ptr %12, align 8
  %13 = lshr i32 %9, 4
  %14 = and i32 %13, 1
  %15 = ptrtoint ptr %.val49 to i64
  %16 = zext nneg i32 %14 to i64
  %17 = xor i64 %15, %16
  %18 = inttoptr i64 %17 to ptr
  br label %common.ret65

19:                                               ; preds = %4
  %20 = getelementptr i8, ptr %1, i64 8
  %.val = load ptr, ptr %20, align 8
  %21 = getelementptr inbounds i32, ptr %.val, i64 %7
  %22 = load i32, ptr %21, align 4
  %23 = getelementptr i8, ptr %0, i64 24
  %.val50 = load ptr, ptr %23, align 8
  %24 = getelementptr i8, ptr %.val50, i64 8
  %.val50.val = load ptr, ptr %24, align 8
  %25 = sext i32 %22 to i64
  %26 = getelementptr inbounds ptr, ptr %.val50.val, i64 %25
  %27 = load ptr, ptr %26, align 8
  %28 = lshr i32 %9, 4
  %29 = and i32 %28, 1
  %30 = ptrtoint ptr %27 to i64
  %31 = zext nneg i32 %29 to i64
  %32 = xor i64 %30, %31
  %33 = inttoptr i64 %32 to ptr
  br label %common.ret65

common.ret65:                                     ; preds = %4, %114, %112, %._crit_edge, %19, %11, %34
  %common.ret65.op = phi ptr [ %43, %34 ], [ %18, %11 ], [ %33, %19 ], [ %82, %._crit_edge ], [ %113, %112 ], [ %115, %114 ], [ null, %4 ]
  ret ptr %common.ret65.op

34:                                               ; preds = %4
  %35 = lshr i32 %9, 9
  %36 = and i32 %35, 7
  %37 = tail call ptr @Ivy_ManDsdConstruct_rec(ptr noundef %0, ptr noundef %1, i32 noundef %36, ptr noundef nonnull %3)
  %38 = lshr i32 %9, 4
  %39 = and i32 %38, 1
  %40 = ptrtoint ptr %37 to i64
  %41 = zext nneg i32 %39 to i64
  %42 = xor i64 %40, %41
  %43 = inttoptr i64 %42 to ptr
  br label %common.ret65

44:                                               ; preds = %4, %4
  %45 = lshr i32 %9, 5
  %46 = and i32 %45, 7
  %.not = icmp eq i32 %46, 0
  br i1 %.not, label %._crit_edge, label %.lr.ph

.lr.ph:                                           ; preds = %44
  %47 = lshr i32 %9, 28
  %48 = lshr i32 %9, 24
  %49 = and i32 %48, 15
  %50 = lshr i32 %9, 20
  %51 = and i32 %50, 15
  %52 = lshr i32 %9, 16
  %53 = and i32 %52, 15
  %54 = lshr i32 %9, 12
  %55 = and i32 %54, 15
  %56 = lshr i32 %9, 8
  %57 = and i32 %56, 15
  %wide.trip.count = zext nneg i32 %46 to i64
  br label %58

58:                                               ; preds = %.lr.ph, %Ivy_DecGetVar.exit
  %indvars.iv = phi i64 [ 0, %.lr.ph ], [ %indvars.iv.next, %Ivy_DecGetVar.exit ]
  %59 = trunc nuw nsw i64 %indvars.iv to i32
  switch i32 %59, label %Ivy_DecGetVar.exit [
    i32 0, label %60
    i32 1, label %61
    i32 2, label %62
    i32 3, label %63
    i32 4, label %64
    i32 5, label %65
  ]

60:                                               ; preds = %58
  br label %Ivy_DecGetVar.exit

61:                                               ; preds = %58
  br label %Ivy_DecGetVar.exit

62:                                               ; preds = %58
  br label %Ivy_DecGetVar.exit

63:                                               ; preds = %58
  br label %Ivy_DecGetVar.exit

64:                                               ; preds = %58
  br label %Ivy_DecGetVar.exit

65:                                               ; preds = %58
  br label %Ivy_DecGetVar.exit

Ivy_DecGetVar.exit:                               ; preds = %58, %60, %61, %62, %63, %64, %65
  %.0.i = phi i32 [ %47, %65 ], [ %49, %64 ], [ %51, %63 ], [ %53, %62 ], [ %55, %61 ], [ %57, %60 ], [ -1, %58 ]
  %66 = ashr i32 %.0.i, 1
  %67 = tail call ptr @Ivy_ManDsdConstruct_rec(ptr noundef %0, ptr noundef %1, i32 noundef %66, ptr noundef %3)
  %68 = and i32 %.0.i, 1
  %69 = ptrtoint ptr %67 to i64
  %70 = zext nneg i32 %68 to i64
  %71 = xor i64 %70, %69
  %72 = inttoptr i64 %71 to ptr
  %73 = getelementptr inbounds nuw [16 x ptr], ptr %5, i64 0, i64 %indvars.iv
  store ptr %72, ptr %73, align 8
  %indvars.iv.next = add nuw nsw i64 %indvars.iv, 1
  %exitcond.not = icmp eq i64 %indvars.iv.next, %wide.trip.count
  br i1 %exitcond.not, label %._crit_edge, label %58, !llvm.loop !17

._crit_edge:                                      ; preds = %Ivy_DecGetVar.exit, %44
  %74 = icmp eq i32 %10, 3
  %75 = select i1 %74, i32 5, i32 6
  %76 = call ptr @Ivy_Multi(ptr noundef %0, ptr noundef nonnull %5, i32 noundef %46, i32 noundef %75) #11
  %77 = lshr i32 %9, 4
  %78 = and i32 %77, 1
  %79 = ptrtoint ptr %76 to i64
  %80 = zext nneg i32 %78 to i64
  %81 = xor i64 %79, %80
  %82 = inttoptr i64 %81 to ptr
  br label %common.ret65

83:                                               ; preds = %4, %4
  %84 = lshr i32 %9, 8
  %85 = lshr i32 %9, 12
  %86 = lshr i32 %9, 16
  %87 = lshr i32 %9, 9
  %88 = and i32 %87, 7
  %89 = tail call ptr @Ivy_ManDsdConstruct_rec(ptr noundef %0, ptr noundef %1, i32 noundef %88, ptr noundef nonnull %3)
  %90 = lshr i32 %9, 13
  %91 = and i32 %90, 7
  %92 = tail call ptr @Ivy_ManDsdConstruct_rec(ptr noundef %0, ptr noundef %1, i32 noundef %91, ptr noundef nonnull %3)
  %93 = lshr i32 %9, 17
  %94 = and i32 %93, 7
  %95 = tail call ptr @Ivy_ManDsdConstruct_rec(ptr noundef %0, ptr noundef %1, i32 noundef %94, ptr noundef nonnull %3)
  %96 = and i32 %84, 1
  %97 = ptrtoint ptr %89 to i64
  %98 = zext nneg i32 %96 to i64
  %99 = xor i64 %97, %98
  %100 = inttoptr i64 %99 to ptr
  %101 = and i32 %85, 1
  %102 = ptrtoint ptr %92 to i64
  %103 = zext nneg i32 %101 to i64
  %104 = xor i64 %102, %103
  %105 = inttoptr i64 %104 to ptr
  %106 = and i32 %86, 1
  %107 = ptrtoint ptr %95 to i64
  %108 = zext nneg i32 %106 to i64
  %109 = xor i64 %107, %108
  %110 = inttoptr i64 %109 to ptr
  %111 = icmp eq i32 %10, 5
  br i1 %111, label %112, label %114

112:                                              ; preds = %83
  %113 = tail call ptr @Ivy_Mux(ptr noundef %0, ptr noundef %100, ptr noundef %105, ptr noundef %110) #11
  br label %common.ret65

114:                                              ; preds = %83
  %115 = tail call ptr @Ivy_Maj(ptr noundef %0, ptr noundef %100, ptr noundef %105, ptr noundef %110) #11
  br label %common.ret65
}